target datalayout = "e-m:e-p270:32:32-p271:32:32-p272:64:64-i64:64-i128:128-f80:128-n8:16:32:64-S128"
target triple = "x86_64-pc-linux-gnu"

%struct.dt_control_signal_t = type { ptr }
%struct.dt_signal_description = type { ptr, ptr, ptr, i64, ptr, i32, ptr, ptr, i32 }

@.str.3 = private unnamed_addr constant [8 x i8] c"connect\00", align 1

; Function Attrs: nounwind uwtable
define internal void @_print_trace(i32 noundef %0, i32 noundef %1, ptr noundef %2) #0 {
  %4 = alloca i32, align 4
  %5 = alloca i32, align 4
  %6 = alloca ptr, align 8
  store i32 %0, ptr %4, align 4, !tbaa !26
  store i32 %1, ptr %5, align 4, !tbaa !26
  store ptr %2, ptr %6, align 8, !tbaa !53
  ret void
}

; Function Attrs: nounwind uwtable
define void @dt_control_signal_connect(ptr noundef %0, i32 noundef %1, ptr noundef %2, ptr noundef %3) #0 {
  %5 = alloca ptr, align 8
  %6 = alloca i32, align 4
  %7 = alloca ptr, align 8
  %8 = alloca ptr, align 8
  store ptr %0, ptr %5, align 8, !tbaa !6
  store i32 %1, ptr %6, align 4, !tbaa !26
  store ptr %2, ptr %7, align 8, !tbaa !37
  store ptr %3, ptr %8, align 8, !tbaa !37
  %9 = load i32, ptr %6, align 4, !tbaa !26
  call void @_print_trace(i32 noundef %9, i32 noundef 2, ptr noundef @.str.3)
  %10 = load ptr, ptr %5, align 8, !tbaa !6
  %11 = getelementptr inbounds nuw %struct.dt_control_signal_t, ptr %10, i32 0, i32 0
  %12 = load ptr, ptr %11, align 8, !tbaa !23
  %13 = call ptr @g_type_check_instance_cast(ptr noundef %12, i64 noundef 80)
  %14 = load i32, ptr %6, align 4, !tbaa !26
  %15 = zext i32 %14 to i64
  %16 = getelementptr inbounds nuw [47 x %struct.dt_signal_description], ptr @_signal_description, i64 0, i64 %15
  %17 = getelementptr inbounds nuw %struct.dt_signal_description, ptr %16, i32 0, i32 0
  %18 = load ptr, ptr %17, align 8, !tbaa !27
  %19 = load ptr, ptr %7, align 8, !tbaa !37
  %20 = load ptr, ptr %8, align 8, !tbaa !37
  %21 = call i64 @g_signal_connect_data(ptr noundef %13, ptr noundef %18, ptr noundef %19, ptr noundef %20, ptr noundef null, i32 noundef 0)
  ret void
}