; Function Attrs: nounwind uwtable
define void @dt_control_signal_connect(ptr noundef readonly captures(none) %0, i32 noundef %1, ptr noundef %2, ptr noundef %3) local_unnamed_addr #0 {
  %5 = load ptr, ptr %0, align 8, !tbaa !21
  %6 = tail call ptr @g_type_check_instance_cast(ptr noundef %5, i64 noundef 80) #11
  %7 = zext i32 %1 to i64
  %8 = getelementptr inbounds nuw [47 x %struct.dt_signal_description], ptr @_signal_description, i64 0, i64 %7
  %9 = load ptr, ptr %8, align 8, !tbaa !24
  %10 = tail call i64 @g_signal_connect_data(ptr noundef %6, ptr noundef %9, ptr noundef %2, ptr noundef %3, ptr noundef null, i32 noundef 0) #11
  ret void
}